target datalayout = "e-m:e-p270:32:32-p271:32:32-p272:64:64-i64:64-i128:128-f80:128-n8:16:32:64-S128"
target triple = "x86_64-pc-linux-gnu"

%class.SecPassword = type <{ %"class.std::vector", i8, [7 x i8] }>
%"class.std::vector" = type { %"struct.std::_Vector_base" }
%"struct.std::_Vector_base" = type { %"struct.std::_Vector_base<wchar_t, std::allocator<wchar_t>>::_Vector_impl" }
%"struct.std::_Vector_base<wchar_t, std::allocator<wchar_t>>::_Vector_impl" = type { %"struct.std::_Vector_base<wchar_t, std::allocator<wchar_t>>::_Vector_impl_data" }
%"struct.std::_Vector_base<wchar_t, std::allocator<wchar_t>>::_Vector_impl_data" = type { ptr, ptr, ptr }

; Function Attrs: mustprogress nounwind uwtable
define void @_Z9cleandataPvm(ptr noundef %0, i64 noundef %1) #2 {
  %3 = alloca ptr, align 8
  %4 = alloca i64, align 8
  %5 = alloca ptr, align 8
  %6 = alloca i64, align 8
  store ptr %0, ptr %3, align 8, !tbaa !27
  store i64 %1, ptr %4, align 8, !tbaa !12
  %7 = load ptr, ptr %3, align 8, !tbaa !27
  %8 = icmp eq ptr %7, null
  br i1 %8, label %12, label %9

9:                                                ; preds = %2
  %10 = load i64, ptr %4, align 8, !tbaa !12
  %11 = icmp eq i64 %10, 0
  br i1 %11, label %12, label %13

12:                                               ; preds = %9, %2
  br label %28

13:                                               ; preds = %9
  call void @llvm.lifetime.start.p0(i64 8, ptr %5) #13
  %14 = load ptr, ptr %3, align 8, !tbaa !27
  store ptr %14, ptr %5, align 8, !tbaa !28
  call void @llvm.lifetime.start.p0(i64 8, ptr %6) #13
  store i64 0, ptr %6, align 8, !tbaa !12
  br label %15

15:                                               ; preds = %24, %13
  %16 = load i64, ptr %6, align 8, !tbaa !12
  %17 = load i64, ptr %4, align 8, !tbaa !12
  %18 = icmp ult i64 %16, %17
  br i1 %18, label %20, label %19

19:                                               ; preds = %15
  call void @llvm.lifetime.end.p0(i64 8, ptr %6) #13
  br label %27

20:                                               ; preds = %15
  %21 = load ptr, ptr %5, align 8, !tbaa !28
  %22 = load i64, ptr %6, align 8, !tbaa !12
  %23 = getelementptr inbounds nuw i8, ptr %21, i64 %22
  store volatile i8 0, ptr %23, align 1, !tbaa !30
  br label %24

24:                                               ; preds = %20
  %25 = load i64, ptr %6, align 8, !tbaa !12
  %26 = add i64 %25, 1
  store i64 %26, ptr %6, align 8, !tbaa !12
  br label %15, !llvm.loop !31

27:                                               ; preds = %19
  call void @llvm.lifetime.end.p0(i64 8, ptr %5) #13
  br label %28

28:                                               ; preds = %27, %12
  ret void
}

; Function Attrs: mustprogress nounwind uwtable
define linkonce_odr noundef nonnull align 4 dereferenceable(4) ptr @_ZNSt6vectorIwSaIwEEixEm(ptr noundef nonnull align 8 dereferenceable(24) %0, i64 noundef %1) #2 comdat align 2 {
  %3 = alloca ptr, align 8
  %4 = alloca i64, align 8
  store ptr %0, ptr %3, align 8, !tbaa !10
  store i64 %1, ptr %4, align 8, !tbaa !12
  %5 = load ptr, ptr %3, align 8
  %6 = getelementptr inbounds nuw %"struct.std::_Vector_base", ptr %5, i32 0, i32 0
  %7 = getelementptr inbounds nuw %"struct.std::_Vector_base<wchar_t, std::allocator<wchar_t>>::_Vector_impl_data", ptr %6, i32 0, i32 0
  %8 = load ptr, ptr %7, align 8, !tbaa !25
  %9 = load i64, ptr %4, align 8, !tbaa !12
  %10 = getelementptr inbounds nuw i32, ptr %8, i64 %9
  ret ptr %10
}

; Function Attrs: mustprogress nounwind uwtable
define linkonce_odr noundef i64 @_ZNKSt6vectorIwSaIwEE4sizeEv(ptr noundef nonnull align 8 dereferenceable(24) %0) #2 comdat align 2 {
  %2 = alloca ptr, align 8
  store ptr %0, ptr %2, align 8, !tbaa !10
  %3 = load ptr, ptr %2, align 8
  %4 = getelementptr inbounds nuw %"struct.std::_Vector_base", ptr %3, i32 0, i32 0
  %5 = getelementptr inbounds nuw %"struct.std::_Vector_base<wchar_t, std::allocator<wchar_t>>::_Vector_impl_data", ptr %4, i32 0, i32 1
  %6 = load ptr, ptr %5, align 8, !tbaa !26
  %7 = getelementptr inbounds nuw %"struct.std::_Vector_base", ptr %3, i32 0, i32 0
  %8 = getelementptr inbounds nuw %"struct.std::_Vector_base<wchar_t, std::allocator<wchar_t>>::_Vector_impl_data", ptr %7, i32 0, i32 0
  %9 = load ptr, ptr %8, align 8, !tbaa !25
  %10 = ptrtoint ptr %6 to i64
  %11 = ptrtoint ptr %9 to i64
  %12 = sub i64 %10, %11
  %13 = sdiv exact i64 %12, 4
  ret i64 %13
}

; Function Attrs: mustprogress uwtable
define void @_ZN11SecPassword5CleanEv(ptr noundef nonnull align 8 dereferenceable(25) %0) #0 align 2 {
  %2 = alloca ptr, align 8
  store ptr %0, ptr %2, align 8, !tbaa !3
  %3 = load ptr, ptr %2, align 8
  %4 = getelementptr inbounds nuw %class.SecPassword, ptr %3, i32 0, i32 1
  store i8 0, ptr %4, align 8, !tbaa !18
  %5 = getelementptr inbounds nuw %class.SecPassword, ptr %3, i32 0, i32 0
  %6 = call noundef i64 @_ZNKSt6vectorIwSaIwEE4sizeEv(ptr noundef nonnull align 8 dereferenceable(24) %5) #13
  %7 = icmp ugt i64 %6, 0
  br i1 %7, label %8, label %14

8:                                                ; preds = %1
  %9 = getelementptr inbounds nuw %class.SecPassword, ptr %3, i32 0, i32 0
  %10 = call noundef nonnull align 4 dereferenceable(4) ptr @_ZNSt6vectorIwSaIwEEixEm(ptr noundef nonnull align 8 dereferenceable(24) %9, i64 noundef 0) #13
  %11 = getelementptr inbounds nuw %class.SecPassword, ptr %3, i32 0, i32 0
  %12 = call noundef i64 @_ZNKSt6vectorIwSaIwEE4sizeEv(ptr noundef nonnull align 8 dereferenceable(24) %11) #13
  %13 = mul i64 %12, 4
  call void @_Z9cleandataPvm(ptr noundef %10, i64 noundef %13)
  br label %14

14:                                               ; preds = %8, %1
  ret void
}