; Function Attrs: mustprogress nofree norecurse nounwind uwtable
define void @_ZN11SecPassword5CleanEv(ptr noundef nonnull align 8 captures(none) dereferenceable(25) initializes((24, 25)) %0) local_unnamed_addr #3 align 2 {
  %2 = getelementptr inbounds nuw i8, ptr %0, i64 24
  store i8 0, ptr %2, align 8, !tbaa !11
  %3 = getelementptr inbounds nuw i8, ptr %0, i64 8
  %4 = load ptr, ptr %3, align 8, !tbaa !10
  %5 = load ptr, ptr %0, align 8, !tbaa !3
  %6 = ptrtoint ptr %4 to i64
  %7 = ptrtoint ptr %5 to i64
  %8 = sub i64 %6, %7
  %.not = icmp eq ptr %4, %5
  %9 = icmp eq ptr %5, null
  %or.cond = or i1 %.not, %9
  br i1 %or.cond, label %_Z9cleandataPvm.exit, label %.preheader.i

.preheader.i:                                     ; preds = %1, %.preheader.i
  %.010.i = phi i64 [ %11, %.preheader.i ], [ 0, %1 ]
  %10 = getelementptr inbounds nuw i8, ptr %5, i64 %.010.i
  store volatile i8 0, ptr %10, align 1, !tbaa !17
  %11 = add nuw i64 %.010.i, 1
  %exitcond.not.i = icmp eq i64 %11, %8
  br i1 %exitcond.not.i, label %_Z9cleandataPvm.exit, label %.preheader.i, !llvm.loop !18

_Z9cleandataPvm.exit:                             ; preds = %.preheader.i, %1
  ret void
}